target datalayout = "e-m:e-p270:32:32-p271:32:32-p272:64:64-i64:64-i128:128-f80:128-n8:16:32:64-S128"
target triple = "x86_64-pc-linux-gnu"

@_ZN16JfrThreadSamplerD1Ev = hidden unnamed_addr alias void (ptr), ptr @_ZN16JfrThreadSamplerD2Ev

; Function Attrs: mustprogress nounwind uwtable
define linkonce_odr hidden void @_ZN12CHeapObjBasedlEPv(ptr noundef %0) #1 comdat align 2 {
  %2 = alloca ptr, align 8
  store ptr %0, ptr %2, align 8
  %3 = load ptr, ptr %2, align 8
  call void @_Z8FreeHeapPv(ptr noundef %3)
  ret void
}

; Function Attrs: mustprogress nounwind uwtable
define linkonce_odr hidden void @_ZN8CHeapObjIL8MEMFLAGS2EEdlEPv(ptr noundef %0) #1 comdat align 2 {
  %2 = alloca ptr, align 8
  store ptr %0, ptr %2, align 8
  %3 = load ptr, ptr %2, align 8
  call void @_ZN12CHeapObjBasedlEPv(ptr noundef %3) #7
  ret void
}

; Function Attrs: mustprogress nounwind uwtable
define hidden void @_ZN16JfrThreadSamplerD0Ev(ptr noundef nonnull align 8 dereferenceable(993) %0) unnamed_addr #1 align 2 {
  %2 = alloca ptr, align 8
  store ptr %0, ptr %2, align 8
  %3 = load ptr, ptr %2, align 8
  call void @_ZN16JfrThreadSamplerD1Ev(ptr noundef nonnull align 8 dereferenceable(993) %3) #7
  call void @_ZN8CHeapObjIL8MEMFLAGS2EEdlEPv(ptr noundef %3) #7
  ret void
}